; Function Attrs: mustprogress uwtable
define noundef ptr @_ZNK11OpenImageIO6v3_1_011ColorConfig4Impl25IdentifyBuiltinColorSpaceEPKc(ptr noundef nonnull align 8 dereferenceable(385) %0, ptr noundef %1) local_unnamed_addr #5 align 2 personality ptr @__gxx_personality_v0 {
  %3 = load ptr, ptr %0, align 8, !tbaa !30
  %4 = icmp ne ptr %3, null
  %5 = load i32, ptr @_ZN11OpenImageIO6v3_1_0L23disable_builtin_configsE, align 4
  %6 = icmp eq i32 %5, 0
  %or.cond.not = select i1 %4, i1 %6, i1 false
  br i1 %or.cond.not, label %7, label %14

7:                                                ; preds = %2
  %8 = getelementptr inbounds nuw i8, ptr %0, i64 16
  %9 = invoke noundef ptr @_ZN16OpenColorIO_v2_46Config25IdentifyBuiltinColorSpaceERKSt10shared_ptrIKS0_ES5_PKc(ptr noundef nonnull align 8 dereferenceable(16) %0, ptr noundef nonnull align 8 dereferenceable(16) %8, ptr noundef %1)
          to label %14 unwind label %10

10:                                               ; preds = %7
  %11 = landingpad { ptr, i32 }
          catch ptr null
  %12 = extractvalue { ptr, i32 } %11, 0
  %13 = tail call ptr @__cxa_begin_catch(ptr %12) #34
  tail call void @__cxa_end_catch()
  br label %14

14:                                               ; preds = %7, %2, %10
  %.0 = phi ptr [ null, %10 ], [ null, %2 ], [ %9, %7 ]
  ret ptr %.0
}